; Function Attrs: mustprogress uwtable
define void @_ZN18colvar_grid_scalarC2ERKSt6vectorIiSaIiEE(ptr noundef nonnull align 8 dereferenceable(712) %0, ptr noundef nonnull align 8 dereferenceable(24) %1) unnamed_addr #3 align 2 {
  %3 = alloca double, align 8
  call void @llvm.lifetime.start.p0(i64 8, ptr nonnull %3) #26
  store double 0.000000e+00, ptr %3, align 8, !tbaa !90
  call void @_ZN11colvar_gridIdEC2ERKSt6vectorIiSaIiEERKdm(ptr noundef nonnull align 8 dereferenceable(698) %0, ptr noundef nonnull align 8 dereferenceable(24) %1, ptr noundef nonnull align 8 dereferenceable(8) %3, i64 noundef 1)
  call void @llvm.lifetime.end.p0(i64 8, ptr nonnull %3) #26
  store ptr getelementptr inbounds nuw inrange(-16, 80) (i8, ptr @_ZTV18colvar_grid_scalar, i64 16), ptr %0, align 8, !tbaa !93
  %4 = getelementptr inbounds nuw i8, ptr %0, i64 704
  store ptr null, ptr %4, align 8, !tbaa !16
  ret void
}